; Function Attrs: nounwind uwtable
define range(i32 0, 2) i32 @test_time_t_ne(ptr noundef %0, i32 noundef %1, ptr noundef %2, ptr noundef %3, i64 noundef %4, i64 noundef %5) local_unnamed_addr #0 {
  %7 = tail call ptr @ASN1_TIME_set(ptr noundef null, i64 noundef %4) #8
  %8 = tail call ptr @ASN1_TIME_set(ptr noundef null, i64 noundef %5) #8
  %9 = icmp ne ptr %7, null
  %10 = icmp ne ptr %8, null
  %or.cond = select i1 %9, i1 %10, i1 false
  br i1 %or.cond, label %11, label %13

11:                                               ; preds = %6
  %12 = tail call i32 @ASN1_TIME_compare(ptr noundef nonnull %7, ptr noundef nonnull %8) #8
  %.not = icmp eq i32 %12, 0
  br i1 %.not, label %.thread18, label %21

13:                                               ; preds = %6
  %14 = icmp eq ptr %7, null
  br i1 %14, label %print_time.exit, label %.thread18

.thread18:                                        ; preds = %11, %13
  %15 = tail call ptr @ASN1_STRING_get0_data(ptr noundef nonnull %7) #8
  br label %print_time.exit

print_time.exit:                                  ; preds = %13, %.thread18
  %16 = phi ptr [ %15, %.thread18 ], [ @.str.55, %13 ]
  %17 = icmp eq ptr %8, null
  br i1 %17, label %print_time.exit17, label %18

18:                                               ; preds = %print_time.exit
  %19 = tail call ptr @ASN1_STRING_get0_data(ptr noundef nonnull %8) #8
  br label %print_time.exit17

print_time.exit17:                                ; preds = %print_time.exit, %18
  %20 = phi ptr [ %19, %18 ], [ @.str.55, %print_time.exit ]
  tail call void (ptr, ptr, i32, ptr, ptr, ptr, ptr, ptr, ...) @test_fail_message(ptr poison, ptr noundef %0, i32 noundef %1, ptr noundef nonnull @.str.53, ptr noundef %2, ptr noundef %3, ptr noundef nonnull @.str.14, ptr noundef nonnull @.str.54, ptr noundef %16, ptr noundef %20)
  br label %21

21:                                               ; preds = %print_time.exit17, %11
  %22 = phi i32 [ 0, %print_time.exit17 ], [ 1, %11 ]
  tail call void @ASN1_STRING_free(ptr noundef %7) #8
  tail call void @ASN1_STRING_free(ptr noundef %8) #8
  ret i32 %22
}